; Function Attrs: nounwind uwtable
define dso_local range(i32 -2147483647, -2147483648) i32 @uv_udp_set_broadcast(ptr noundef readonly captures(none) %0, i32 noundef %1) local_unnamed_addr #0 {
  %3 = alloca i32, align 4
  store i32 %1, ptr %3, align 4
  %4 = getelementptr inbounds nuw i8, ptr %0, i64 176
  %5 = load i32, ptr %4, align 8
  %6 = call i32 @setsockopt(i32 noundef %5, i32 noundef 1, i32 noundef 6, ptr noundef nonnull %3, i32 noundef 4) #9
  %.not = icmp eq i32 %6, 0
  br i1 %.not, label %11, label %7

7:                                                ; preds = %2
  %8 = tail call ptr @__errno_location() #10
  %9 = load i32, ptr %8, align 4
  %10 = sub nsw i32 0, %9
  br label %11

11:                                               ; preds = %2, %7
  %.0 = phi i32 [ %10, %7 ], [ 0, %2 ]
  ret i32 %.0
}